; Function Attrs: nounwind uwtable
define range(i32 0, 2) i32 @ossl_quic_wire_encode_frame_max_data(ptr noundef %0, i64 noundef %1) local_unnamed_addr #2 {
  %3 = tail call i32 @WPACKET_quic_write_vlint(ptr noundef %0, i64 noundef 16) #12
  %.not = icmp eq i32 %3, 0
  br i1 %.not, label %6, label %4

4:                                                ; preds = %2
  %5 = tail call i32 @WPACKET_quic_write_vlint(ptr noundef %0, i64 noundef %1) #12
  %.not3 = icmp ne i32 %5, 0
  %spec.select = zext i1 %.not3 to i32
  br label %6

6:                                                ; preds = %4, %2
  %.0 = phi i32 [ 0, %2 ], [ %spec.select, %4 ]
  ret i32 %.0
}